; Function Attrs: nounwind uwtable
define dso_local void @strbuf_commented_addf(ptr noundef captures(none) %0, ptr noundef readonly captures(none) %1, ptr noundef %2, ...) local_unnamed_addr #3 {
  %4 = alloca [1 x %struct.__va_list_tag], align 16
  %5 = alloca %struct.strbuf, align 8
  call void @llvm.lifetime.start.p0(i64 24, ptr nonnull %4) #25
  call void @llvm.lifetime.start.p0(i64 24, ptr nonnull %5) #25
  call void @llvm.memcpy.p0.p0.i64(ptr noundef nonnull align 8 dereferenceable(24) %5, ptr noundef nonnull align 8 dereferenceable(24) @__const.strbuf_addftime.munged_fmt, i64 24, i1 false)
  %6 = getelementptr inbounds nuw i8, ptr %0, i64 8
  %7 = load i64, ptr %6, align 8, !tbaa !16
  %.not = icmp eq i64 %7, 0
  br i1 %.not, label %.critedge, label %8

8:                                                ; preds = %3
  %9 = getelementptr inbounds nuw i8, ptr %0, i64 16
  %10 = load ptr, ptr %9, align 8, !tbaa !12
  %11 = getelementptr i8, ptr %10, i64 %7
  %12 = getelementptr i8, ptr %11, i64 -1
  %13 = load i8, ptr %12, align 1, !tbaa !4
  %.not8 = icmp eq i8 %13, 10
  call void @llvm.va_start.p0(ptr nonnull %4)
  call void @strbuf_vaddf(ptr noundef nonnull %5, ptr noundef %2, ptr noundef nonnull %4)
  call void @llvm.va_end.p0(ptr nonnull %4)
  %14 = getelementptr inbounds nuw i8, ptr %5, i64 16
  %15 = load ptr, ptr %14, align 8, !tbaa !12
  %16 = getelementptr inbounds nuw i8, ptr %5, i64 8
  %17 = load i64, ptr %16, align 8, !tbaa !16
  call fastcc void @add_lines(ptr noundef nonnull %0, ptr noundef readonly %1, ptr noundef %15, i64 noundef %17, i32 noundef 1)
  br i1 %.not8, label %27, label %18

18:                                               ; preds = %8
  %19 = load ptr, ptr %9, align 8, !tbaa !12
  %20 = load i64, ptr %6, align 8, !tbaa !16
  %21 = add i64 %20, -1
  store i64 %21, ptr %6, align 8, !tbaa !16
  %22 = getelementptr inbounds nuw i8, ptr %19, i64 %21
  store i8 0, ptr %22, align 1, !tbaa !4
  br label %27

.critedge:                                        ; preds = %3
  call void @llvm.va_start.p0(ptr nonnull %4)
  call void @strbuf_vaddf(ptr noundef nonnull %5, ptr noundef %2, ptr noundef nonnull %4)
  call void @llvm.va_end.p0(ptr nonnull %4)
  %23 = getelementptr inbounds nuw i8, ptr %5, i64 16
  %24 = load ptr, ptr %23, align 8, !tbaa !12
  %25 = getelementptr inbounds nuw i8, ptr %5, i64 8
  %26 = load i64, ptr %25, align 8, !tbaa !16
  call fastcc void @add_lines(ptr noundef nonnull %0, ptr noundef readonly %1, ptr noundef %24, i64 noundef %26, i32 noundef 1)
  br label %27

27:                                               ; preds = %.critedge, %18, %8
  %28 = phi ptr [ %24, %.critedge ], [ %15, %18 ], [ %15, %8 ]
  %29 = load i64, ptr %5, align 8, !tbaa !15
  %.not.i = icmp eq i64 %29, 0
  br i1 %.not.i, label %strbuf_release.exit, label %30

30:                                               ; preds = %27
  call void @free(ptr noundef %28) #25
  br label %strbuf_release.exit

strbuf_release.exit:                              ; preds = %27, %30
  call void @llvm.lifetime.end.p0(i64 24, ptr nonnull %5) #25
  call void @llvm.lifetime.end.p0(i64 24, ptr nonnull %4) #25
  ret void
}